target datalayout = "e-m:e-p270:32:32-p271:32:32-p272:64:64-i64:64-i128:128-f80:128-n8:16:32:64-S128"
target triple = "x86_64-pc-linux-gnu"

%struct.darktable_t = type { %struct.dt_codepath_t, i32, i32, ptr, ptr, ptr, ptr, ptr, ptr, ptr, ptr, ptr, ptr, ptr, ptr, ptr, ptr, ptr, ptr, ptr, ptr, ptr, ptr, ptr, ptr, ptr, ptr, ptr, ptr, ptr, [64 x %struct.dt_pthread_mutex_t], %struct.dt_pthread_mutex_t, %struct.dt_pthread_mutex_t, %struct.dt_pthread_mutex_t, %struct.dt_pthread_mutex_t, %struct.dt_pthread_mutex_t, ptr, ptr, ptr, ptr, ptr, ptr, ptr, ptr, ptr, ptr, ptr, ptr, ptr, %struct.dt_lua_state_t, ptr, double, ptr, i32, [47 x i32], i32, i32, ptr, ptr, %struct.dt_sys_resources_t, %struct.dt_backthumb_t, %struct.dt_gimp_t }
%struct.dt_codepath_t = type { i8, [3 x i8] }
%struct.dt_pthread_mutex_t = type { %union.pthread_mutex_t }
%union.pthread_mutex_t = type { %struct.__pthread_mutex_s }
%struct.__pthread_mutex_s = type { i32, i32, i32, i32, i32, i16, i16, %struct.__pthread_internal_list }
%struct.__pthread_internal_list = type { ptr, ptr }
%struct.dt_lua_state_t = type { i32 }
%struct.dt_sys_resources_t = type { i64, i64, ptr, ptr, i32 }
%struct.dt_backthumb_t = type { double, double, i32, i32, i32, i32 }
%struct.dt_gimp_t = type { i32, ptr, ptr, i32, i32 }

@background_running = internal global i32 0, align 4
@.str = private unnamed_addr constant [3 x i8] c"%s\00", align 1
@.str.1 = private unnamed_addr constant [21 x i8] c"synchronize sidecars\00", align 1
@darktable = external global %struct.darktable_t, align 8

; Function Attrs: nounwind uwtable
define void @dt_control_sidecar_synch_start() #0 {
  %1 = alloca ptr, align 8
  %2 = alloca i32, align 4
  call void @llvm.lifetime.start.p0(i64 8, ptr %1) #6
  %3 = call ptr (ptr, ptr, ...) @dt_control_job_create(ptr noundef @_control_write_sidecars_job_run, ptr noundef @.str, ptr noundef @.str.1)
  store ptr %3, ptr %1, align 8, !tbaa !20
  %4 = load ptr, ptr %1, align 8, !tbaa !20
  %5 = icmp ne ptr %4, null
  br i1 %5, label %7, label %6

6:                                                ; preds = %0
  store i32 1, ptr %2, align 4
  br label %11

7:                                                ; preds = %0
  %8 = load ptr, ptr getelementptr inbounds nuw (%struct.darktable_t, ptr @darktable, i32 0, i32 12), align 8, !tbaa !22
  %9 = load ptr, ptr %1, align 8, !tbaa !20
  %10 = call i32 @dt_control_add_job(ptr noundef %8, i32 noundef 1, ptr noundef %9)
  store i32 1, ptr @background_running, align 4, !tbaa !6
  store i32 0, ptr %2, align 4
  br label %11

11:                                               ; preds = %7, %6
  call void @llvm.lifetime.end.p0(i64 8, ptr %1) #6
  %12 = load i32, ptr %2, align 4
  switch i32 %12, label %14 [
    i32 0, label %13
    i32 1, label %13
  ]

13:                                               ; preds = %11, %11
  ret void

14:                                               ; preds = %11
  unreachable
}