; Function Attrs: nounwind uwtable
define void @dt_control_sidecar_synch_start() local_unnamed_addr #0 {
  %1 = tail call ptr (ptr, ptr, ...) @dt_control_job_create(ptr noundef nonnull @_control_write_sidecars_job_run, ptr noundef nonnull @.str, ptr noundef nonnull @.str.1) #6
  %.not = icmp eq ptr %1, null
  br i1 %.not, label %5, label %2

2:                                                ; preds = %0
  %3 = load ptr, ptr getelementptr inbounds nuw (i8, ptr @darktable, i64 88), align 8, !tbaa !17
  %4 = tail call i32 @dt_control_add_job(ptr noundef %3, i32 noundef 1, ptr noundef nonnull %1) #6
  store i1 true, ptr @background_running, align 4
  br label %5

5:                                                ; preds = %0, %2
  ret void
}